target datalayout = "e-m:e-p270:32:32-p271:32:32-p272:64:64-i64:64-i128:128-f80:128-n8:16:32:64-S128"
target triple = "x86_64-pc-linux-gnu"

%"class.boost::json::storage_ptr" = type { i64 }
%"class.boost::json::string" = type { %"class.boost::json::storage_ptr", %"class.boost::json::detail::string_impl" }
%"class.boost::json::detail::string_impl" = type { %union.anon.2 }
%union.anon.2 = type { %"struct.boost::json::detail::string_impl::pointer" }
%"struct.boost::json::detail::string_impl::pointer" = type { i8, ptr }

; Function Attrs: mustprogress nounwind uwtable
define linkonce_odr hidden noundef ptr @_ZNSt11char_traitsIcE6assignEPcmc(ptr noundef %0, i64 noundef %1, i8 noundef signext %2) #2 comdat align 2 {
  %4 = alloca ptr, align 8
  %5 = alloca ptr, align 8
  %6 = alloca i64, align 8
  %7 = alloca i8, align 1
  store ptr %0, ptr %5, align 8, !tbaa !3
  store i64 %1, ptr %6, align 8, !tbaa !16
  store i8 %2, ptr %7, align 1, !tbaa !56
  %8 = load i64, ptr %6, align 8, !tbaa !16
  %9 = icmp eq i64 %8, 0
  br i1 %9, label %10, label %12

10:                                               ; preds = %3
  %11 = load ptr, ptr %5, align 8, !tbaa !3
  store ptr %11, ptr %4, align 8
  br label %18

12:                                               ; preds = %3
  %13 = load ptr, ptr %5, align 8, !tbaa !3
  %14 = load i8, ptr %7, align 1, !tbaa !56
  %15 = sext i8 %14 to i32
  %16 = trunc i32 %15 to i8
  %17 = load i64, ptr %6, align 8, !tbaa !16
  call void @llvm.memset.p0.i64(ptr align 1 %13, i8 %16, i64 %17, i1 false)
  store ptr %13, ptr %4, align 8
  br label %18

18:                                               ; preds = %12, %10
  %19 = load ptr, ptr %4, align 8
  ret ptr %19
}

; Function Attrs: mustprogress uwtable
define noundef nonnull align 8 dereferenceable(24) ptr @_ZN5boost4json6string6insertEmmc(ptr noundef nonnull align 8 dereferenceable(24) %0, i64 noundef %1, i64 noundef %2, i8 noundef signext %3) #5 align 2 {
  %5 = alloca ptr, align 8
  %6 = alloca i64, align 8
  %7 = alloca i64, align 8
  %8 = alloca i8, align 1
  store ptr %0, ptr %5, align 8, !tbaa !3
  store i64 %1, ptr %6, align 8, !tbaa !16
  store i64 %2, ptr %7, align 8, !tbaa !16
  store i8 %3, ptr %8, align 1, !tbaa !56
  %9 = load ptr, ptr %5, align 8
  %10 = getelementptr inbounds nuw %"class.boost::json::string", ptr %9, i32 0, i32 1
  %11 = load i64, ptr %6, align 8, !tbaa !16
  %12 = load i64, ptr %7, align 8, !tbaa !16
  %13 = getelementptr inbounds nuw %"class.boost::json::string", ptr %9, i32 0, i32 0
  %14 = call noundef ptr @_ZN5boost4json6detail11string_impl16insert_uncheckedEmmRKNS0_11storage_ptrE(ptr noundef nonnull align 8 dereferenceable(16) %10, i64 noundef %11, i64 noundef %12, ptr noundef nonnull align 8 dereferenceable(8) %13)
  %15 = load i64, ptr %7, align 8, !tbaa !16
  %16 = load i8, ptr %8, align 1, !tbaa !56
  %17 = call noundef ptr @_ZNSt11char_traitsIcE6assignEPcmc(ptr noundef %14, i64 noundef %15, i8 noundef signext %16)
  ret ptr %9
}