; Function Attrs: mustprogress uwtable
define noundef nonnull align 8 dereferenceable(24) ptr @_ZN5boost4json6string6insertEmmc(ptr noundef nonnull returned align 8 dereferenceable(24) %0, i64 noundef %1, i64 noundef %2, i8 noundef signext %3) local_unnamed_addr #5 align 2 {
  %5 = getelementptr inbounds nuw i8, ptr %0, i64 8
  %6 = tail call noundef ptr @_ZN5boost4json6detail11string_impl16insert_uncheckedEmmRKNS0_11storage_ptrE(ptr noundef nonnull align 8 dereferenceable(16) %5, i64 noundef %1, i64 noundef %2, ptr noundef nonnull align 8 dereferenceable(8) %0)
  %7 = icmp eq i64 %2, 0
  br i1 %7, label %_ZNSt11char_traitsIcE6assignEPcmc.exit, label %8

8:                                                ; preds = %4
  tail call void @llvm.memset.p0.i64(ptr align 1 %6, i8 %3, i64 %2, i1 false)
  br label %_ZNSt11char_traitsIcE6assignEPcmc.exit

_ZNSt11char_traitsIcE6assignEPcmc.exit:           ; preds = %4, %8
  ret ptr %0
}